target datalayout = "e-m:e-p270:32:32-p271:32:32-p272:64:64-i64:64-i128:128-f80:128-n8:16:32:64-S128"
target triple = "x86_64-pc-linux-gnu"

%"class.std::vector.150" = type { %"struct.std::_Vector_base.151" }
%"struct.std::_Vector_base.151" = type { %"struct.std::_Vector_base<cv::gimpl::RcDesc, std::allocator<cv::gimpl::RcDesc>>::_Vector_impl" }
%"struct.std::_Vector_base<cv::gimpl::RcDesc, std::allocator<cv::gimpl::RcDesc>>::_Vector_impl" = type { %"struct.std::_Vector_base<cv::gimpl::RcDesc, std::allocator<cv::gimpl::RcDesc>>::_Vector_impl_data" }
%"struct.std::_Vector_base<cv::gimpl::RcDesc, std::allocator<cv::gimpl::RcDesc>>::_Vector_impl_data" = type { ptr, ptr, ptr }
%"struct.cv::gimpl::GExecutor::OpDesc" = type { %"class.std::vector.150", %"class.std::vector.150", %"class.std::shared_ptr.169" }
%"class.std::shared_ptr.169" = type { %"class.std::__shared_ptr.170" }
%"class.std::__shared_ptr.170" = type { ptr, %"class.std::__shared_count" }
%"class.std::__shared_count" = type { ptr }
%"class.cv::gimpl::GExecutor" = type { %"class.cv::gimpl::GAbstractExecutor", %"struct.cv::gimpl::magazine::Class", %"class.std::vector", %"class.std::vector.140" }
%"class.cv::gimpl::GAbstractExecutor" = type { ptr, %"class.std::unique_ptr", %"class.std::shared_ptr", %"class.ade::TypedGraph", %"class.ade::TypedGraph.2" }
%"class.std::unique_ptr" = type { %"struct.std::__uniq_ptr_data" }
%"struct.std::__uniq_ptr_data" = type { %"class.std::__uniq_ptr_impl" }
%"class.std::__uniq_ptr_impl" = type { %"class.std::tuple" }
%"class.std::tuple" = type { %"struct.std::_Tuple_impl" }
%"struct.std::_Tuple_impl" = type { %"struct.std::_Head_base.1" }
%"struct.std::_Head_base.1" = type { ptr }
%"class.std::shared_ptr" = type { %"class.std::__shared_ptr" }
%"class.std::__shared_ptr" = type { ptr, %"class.std::__shared_count" }
%"class.ade::TypedGraph" = type { %"class.ade::ConstTypedGraph" }
%"class.ade::ConstTypedGraph" = type { i64, %"struct.std::array" }
%"struct.std::array" = type { [23 x %"class.ade::details::MetadataId"] }
%"class.ade::details::MetadataId" = type { ptr }
%"class.ade::TypedGraph.2" = type { %"class.ade::ConstTypedGraph.3" }
%"class.ade::ConstTypedGraph.3" = type { i64, %"struct.std::array.4" }
%"struct.std::array.4" = type { [9 x %"class.ade::details::MetadataId"] }
%"struct.cv::gimpl::magazine::Class" = type { %"class.std::tuple.5", %"struct.std::array.122" }
%"class.std::tuple.5" = type { %"struct.std::_Tuple_impl.6" }
%"struct.std::_Tuple_impl.6" = type { %"struct.std::_Tuple_impl.7", %"struct.std::_Head_base.107" }
%"struct.std::_Tuple_impl.7" = type { %"struct.std::_Tuple_impl.8", %"struct.std::_Head_base.92" }
%"struct.std::_Tuple_impl.8" = type { %"struct.std::_Tuple_impl.9", %"struct.std::_Head_base.77" }
%"struct.std::_Tuple_impl.9" = type { %"struct.std::_Tuple_impl.10", %"struct.std::_Head_base.62" }
%"struct.std::_Tuple_impl.10" = type { %"struct.std::_Tuple_impl.11", %"struct.std::_Head_base.47" }
%"struct.std::_Tuple_impl.11" = type { %"struct.std::_Tuple_impl.12", %"struct.std::_Head_base.32" }
%"struct.std::_Tuple_impl.12" = type { %"struct.std::_Tuple_impl.13", %"struct.std::_Head_base.17" }
%"struct.std::_Tuple_impl.13" = type { %"struct.std::_Head_base.14" }
%"struct.std::_Head_base.14" = type { %"class.std::unordered_map" }
%"class.std::unordered_map" = type { %"class.std::_Hashtable" }
%"class.std::_Hashtable" = type { ptr, i64, %"struct.std::__detail::_Hash_node_base", i64, %"struct.std::__detail::_Prime_rehash_policy", ptr }
%"struct.std::__detail::_Hash_node_base" = type { ptr }
%"struct.std::__detail::_Prime_rehash_policy" = type { float, i64 }
%"struct.std::_Head_base.17" = type { %"class.std::unordered_map.18" }
%"class.std::unordered_map.18" = type { %"class.std::_Hashtable.19" }
%"class.std::_Hashtable.19" = type { ptr, i64, %"struct.std::__detail::_Hash_node_base", i64, %"struct.std::__detail::_Prime_rehash_policy", ptr }
%"struct.std::_Head_base.32" = type { %"class.std::unordered_map.33" }
%"class.std::unordered_map.33" = type { %"class.std::_Hashtable.34" }
%"class.std::_Hashtable.34" = type { ptr, i64, %"struct.std::__detail::_Hash_node_base", i64, %"struct.std::__detail::_Prime_rehash_policy", ptr }
%"struct.std::_Head_base.47" = type { %"class.std::unordered_map.48" }
%"class.std::unordered_map.48" = type { %"class.std::_Hashtable.49" }
%"class.std::_Hashtable.49" = type { ptr, i64, %"struct.std::__detail::_Hash_node_base", i64, %"struct.std::__detail::_Prime_rehash_policy", ptr }
%"struct.std::_Head_base.62" = type { %"class.std::unordered_map.63" }
%"class.std::unordered_map.63" = type { %"class.std::_Hashtable.64" }
%"class.std::_Hashtable.64" = type { ptr, i64, %"struct.std::__detail::_Hash_node_base", i64, %"struct.std::__detail::_Prime_rehash_policy", ptr }
%"struct.std::_Head_base.77" = type { %"class.std::unordered_map.78" }
%"class.std::unordered_map.78" = type { %"class.std::_Hashtable.79" }
%"class.std::_Hashtable.79" = type { ptr, i64, %"struct.std::__detail::_Hash_node_base", i64, %"struct.std::__detail::_Prime_rehash_policy", ptr }
%"struct.std::_Head_base.92" = type { %"class.std::unordered_map.93" }
%"class.std::unordered_map.93" = type { %"class.std::_Hashtable.94" }
%"class.std::_Hashtable.94" = type { ptr, i64, %"struct.std::__detail::_Hash_node_base", i64, %"struct.std::__detail::_Prime_rehash_policy", ptr }
%"struct.std::_Head_base.107" = type { %"class.std::unordered_map.108" }
%"class.std::unordered_map.108" = type { %"class.std::_Hashtable.109" }
%"class.std::_Hashtable.109" = type { ptr, i64, %"struct.std::__detail::_Hash_node_base", i64, %"struct.std::__detail::_Prime_rehash_policy", ptr }
%"struct.std::array.122" = type { [8 x %"class.std::unordered_map.123"] }
%"class.std::unordered_map.123" = type { %"class.std::_Hashtable.124" }
%"class.std::_Hashtable.124" = type { ptr, i64, %"struct.std::__detail::_Hash_node_base", i64, %"struct.std::__detail::_Prime_rehash_policy", ptr }
%"class.std::vector" = type { %"struct.std::_Vector_base" }
%"struct.std::_Vector_base" = type { %"struct.std::_Vector_base<cv::gimpl::GExecutor::OpDesc, std::allocator<cv::gimpl::GExecutor::OpDesc>>::_Vector_impl" }
%"struct.std::_Vector_base<cv::gimpl::GExecutor::OpDesc, std::allocator<cv::gimpl::GExecutor::OpDesc>>::_Vector_impl" = type { %"struct.std::_Vector_base<cv::gimpl::GExecutor::OpDesc, std::allocator<cv::gimpl::GExecutor::OpDesc>>::_Vector_impl_data" }
%"struct.std::_Vector_base<cv::gimpl::GExecutor::OpDesc, std::allocator<cv::gimpl::GExecutor::OpDesc>>::_Vector_impl_data" = type { ptr, ptr, ptr }
%"class.std::vector.140" = type { %"struct.std::_Vector_base.141" }
%"struct.std::_Vector_base.141" = type { %"struct.std::_Vector_base<cv::gimpl::GExecutor::DataDesc, std::allocator<cv::gimpl::GExecutor::DataDesc>>::_Vector_impl" }
%"struct.std::_Vector_base<cv::gimpl::GExecutor::DataDesc, std::allocator<cv::gimpl::GExecutor::DataDesc>>::_Vector_impl" = type { %"struct.std::_Vector_base<cv::gimpl::GExecutor::DataDesc, std::allocator<cv::gimpl::GExecutor::DataDesc>>::_Vector_impl_data" }
%"struct.std::_Vector_base<cv::gimpl::GExecutor::DataDesc, std::allocator<cv::gimpl::GExecutor::DataDesc>>::_Vector_impl_data" = type { ptr, ptr, ptr }
%"class.__gnu_cxx::__normal_iterator.250" = type { ptr }

; Function Attrs: mustprogress nounwind uwtable
define linkonce_odr hidden noundef ptr @_ZNKSt12__shared_ptrIN2cv5gimpl17GIslandExecutableELN9__gnu_cxx12_Lock_policyE2EE3getEv(ptr noundef nonnull align 8 dereferenceable(16) %0) #5 comdat align 2 {
  %2 = alloca ptr, align 8
  store ptr %0, ptr %2, align 8
  %3 = load ptr, ptr %2, align 8
  %4 = getelementptr inbounds %"class.std::__shared_ptr.170", ptr %3, i32 0, i32 0
  %5 = load ptr, ptr %4, align 8
  ret ptr %5
}

; Function Attrs: mustprogress nounwind uwtable
define linkonce_odr hidden noundef ptr @_ZNKSt19__shared_ptr_accessIN2cv5gimpl17GIslandExecutableELN9__gnu_cxx12_Lock_policyE2ELb0ELb0EE6_M_getEv(ptr noundef nonnull align 1 dereferenceable(1) %0) #5 comdat align 2 {
  %2 = alloca ptr, align 8
  store ptr %0, ptr %2, align 8
  %3 = load ptr, ptr %2, align 8
  %4 = call noundef ptr @_ZNKSt12__shared_ptrIN2cv5gimpl17GIslandExecutableELN9__gnu_cxx12_Lock_policyE2EE3getEv(ptr noundef nonnull align 8 dereferenceable(16) %3) #3
  ret ptr %4
}

; Function Attrs: mustprogress nounwind uwtable
define linkonce_odr hidden noundef nonnull align 8 dereferenceable(8) ptr @_ZNK9__gnu_cxx17__normal_iteratorIPN2cv5gimpl9GExecutor6OpDescESt6vectorIS4_SaIS4_EEE4baseEv(ptr noundef nonnull align 8 dereferenceable(8) %0) #5 comdat align 2 {
  %2 = alloca ptr, align 8
  store ptr %0, ptr %2, align 8
  %3 = load ptr, ptr %2, align 8
  %4 = getelementptr inbounds %"class.__gnu_cxx::__normal_iterator.250", ptr %3, i32 0, i32 0
  ret ptr %4
}

; Function Attrs: mustprogress nounwind uwtable
define linkonce_odr hidden void @_ZN9__gnu_cxx17__normal_iteratorIPN2cv5gimpl9GExecutor6OpDescESt6vectorIS4_SaIS4_EEEC2ERKS5_(ptr noundef nonnull align 8 dereferenceable(8) %0, ptr noundef nonnull align 8 dereferenceable(8) %1) unnamed_addr #5 comdat align 2 {
  %3 = alloca ptr, align 8
  %4 = alloca ptr, align 8
  store ptr %0, ptr %3, align 8
  store ptr %1, ptr %4, align 8
  %5 = load ptr, ptr %3, align 8
  %6 = getelementptr inbounds %"class.__gnu_cxx::__normal_iterator.250", ptr %5, i32 0, i32 0
  %7 = load ptr, ptr %4, align 8
  %8 = load ptr, ptr %7, align 8
  store ptr %8, ptr %6, align 8
  ret void
}

; Function Attrs: mustprogress nounwind uwtable
define linkonce_odr hidden noundef nonnull align 8 dereferenceable(8) ptr @_ZN9__gnu_cxx17__normal_iteratorIPN2cv5gimpl9GExecutor6OpDescESt6vectorIS4_SaIS4_EEEppEv(ptr noundef nonnull align 8 dereferenceable(8) %0) #5 comdat align 2 {
  %2 = alloca ptr, align 8
  store ptr %0, ptr %2, align 8
  %3 = load ptr, ptr %2, align 8
  %4 = getelementptr inbounds %"class.__gnu_cxx::__normal_iterator.250", ptr %3, i32 0, i32 0
  %5 = load ptr, ptr %4, align 8
  %6 = getelementptr inbounds %"struct.cv::gimpl::GExecutor::OpDesc", ptr %5, i32 1
  store ptr %6, ptr %4, align 8
  ret ptr %3
}

; Function Attrs: mustprogress nounwind uwtable
define linkonce_odr hidden noundef ptr @_ZNKSt19__shared_ptr_accessIN2cv5gimpl17GIslandExecutableELN9__gnu_cxx12_Lock_policyE2ELb0ELb0EEptEv(ptr noundef nonnull align 1 dereferenceable(1) %0) #5 comdat align 2 {
  %2 = alloca ptr, align 8
  store ptr %0, ptr %2, align 8
  %3 = load ptr, ptr %2, align 8
  %4 = call noundef ptr @_ZNKSt19__shared_ptr_accessIN2cv5gimpl17GIslandExecutableELN9__gnu_cxx12_Lock_policyE2ELb0ELb0EE6_M_getEv(ptr noundef nonnull align 1 dereferenceable(1) %3) #3
  ret ptr %4
}

; Function Attrs: mustprogress nounwind uwtable
define linkonce_odr hidden noundef nonnull align 8 dereferenceable(64) ptr @_ZNK9__gnu_cxx17__normal_iteratorIPN2cv5gimpl9GExecutor6OpDescESt6vectorIS4_SaIS4_EEEdeEv(ptr noundef nonnull align 8 dereferenceable(8) %0) #5 comdat align 2 {
  %2 = alloca ptr, align 8
  store ptr %0, ptr %2, align 8
  %3 = load ptr, ptr %2, align 8
  %4 = getelementptr inbounds %"class.__gnu_cxx::__normal_iterator.250", ptr %3, i32 0, i32 0
  %5 = load ptr, ptr %4, align 8
  ret ptr %5
}

; Function Attrs: mustprogress nounwind uwtable
define linkonce_odr hidden noundef zeroext i1 @_ZN9__gnu_cxxneIPN2cv5gimpl9GExecutor6OpDescESt6vectorIS4_SaIS4_EEEEbRKNS_17__normal_iteratorIT_T0_EESE_(ptr noundef nonnull align 8 dereferenceable(8) %0, ptr noundef nonnull align 8 dereferenceable(8) %1) #5 comdat {
  %3 = alloca ptr, align 8
  %4 = alloca ptr, align 8
  store ptr %0, ptr %3, align 8
  store ptr %1, ptr %4, align 8
  %5 = load ptr, ptr %3, align 8
  %6 = call noundef nonnull align 8 dereferenceable(8) ptr @_ZNK9__gnu_cxx17__normal_iteratorIPN2cv5gimpl9GExecutor6OpDescESt6vectorIS4_SaIS4_EEE4baseEv(ptr noundef nonnull align 8 dereferenceable(8) %5) #3
  %7 = load ptr, ptr %6, align 8
  %8 = load ptr, ptr %4, align 8
  %9 = call noundef nonnull align 8 dereferenceable(8) ptr @_ZNK9__gnu_cxx17__normal_iteratorIPN2cv5gimpl9GExecutor6OpDescESt6vectorIS4_SaIS4_EEE4baseEv(ptr noundef nonnull align 8 dereferenceable(8) %8) #3
  %10 = load ptr, ptr %9, align 8
  %11 = icmp ne ptr %7, %10
  ret i1 %11
}

; Function Attrs: mustprogress nounwind uwtable
define linkonce_odr hidden ptr @_ZNSt6vectorIN2cv5gimpl9GExecutor6OpDescESaIS3_EE3endEv(ptr noundef nonnull align 8 dereferenceable(24) %0) #5 comdat align 2 {
  %2 = alloca %"class.__gnu_cxx::__normal_iterator.250", align 8
  %3 = alloca ptr, align 8
  store ptr %0, ptr %3, align 8
  %4 = load ptr, ptr %3, align 8
  %5 = getelementptr inbounds %"struct.std::_Vector_base", ptr %4, i32 0, i32 0
  %6 = getelementptr inbounds %"struct.std::_Vector_base<cv::gimpl::GExecutor::OpDesc, std::allocator<cv::gimpl::GExecutor::OpDesc>>::_Vector_impl_data", ptr %5, i32 0, i32 1
  call void @_ZN9__gnu_cxx17__normal_iteratorIPN2cv5gimpl9GExecutor6OpDescESt6vectorIS4_SaIS4_EEEC2ERKS5_(ptr noundef nonnull align 8 dereferenceable(8) %2, ptr noundef nonnull align 8 dereferenceable(8) %6) #3
  %7 = getelementptr inbounds %"class.__gnu_cxx::__normal_iterator.250", ptr %2, i32 0, i32 0
  %8 = load ptr, ptr %7, align 8
  ret ptr %8
}

; Function Attrs: mustprogress nounwind uwtable
define linkonce_odr hidden ptr @_ZNSt6vectorIN2cv5gimpl9GExecutor6OpDescESaIS3_EE5beginEv(ptr noundef nonnull align 8 dereferenceable(24) %0) #5 comdat align 2 {
  %2 = alloca %"class.__gnu_cxx::__normal_iterator.250", align 8
  %3 = alloca ptr, align 8
  store ptr %0, ptr %3, align 8
  %4 = load ptr, ptr %3, align 8
  %5 = getelementptr inbounds %"struct.std::_Vector_base", ptr %4, i32 0, i32 0
  %6 = getelementptr inbounds %"struct.std::_Vector_base<cv::gimpl::GExecutor::OpDesc, std::allocator<cv::gimpl::GExecutor::OpDesc>>::_Vector_impl_data", ptr %5, i32 0, i32 0
  call void @_ZN9__gnu_cxx17__normal_iteratorIPN2cv5gimpl9GExecutor6OpDescESt6vectorIS4_SaIS4_EEEC2ERKS5_(ptr noundef nonnull align 8 dereferenceable(8) %2, ptr noundef nonnull align 8 dereferenceable(8) %6) #3
  %7 = getelementptr inbounds %"class.__gnu_cxx::__normal_iterator.250", ptr %2, i32 0, i32 0
  %8 = load ptr, ptr %7, align 8
  ret ptr %8
}

; Function Attrs: mustprogress uwtable
define hidden void @_ZN2cv5gimpl9GExecutor19prepareForNewStreamEv(ptr noundef nonnull align 8 dereferenceable(1248) %0) unnamed_addr #4 align 2 {
  %2 = alloca ptr, align 8
  %3 = alloca ptr, align 8
  %4 = alloca %"class.__gnu_cxx::__normal_iterator.250", align 8
  %5 = alloca %"class.__gnu_cxx::__normal_iterator.250", align 8
  %6 = alloca ptr, align 8
  store ptr %0, ptr %2, align 8
  %7 = load ptr, ptr %2, align 8
  %8 = getelementptr inbounds %"class.cv::gimpl::GExecutor", ptr %7, i32 0, i32 2
  store ptr %8, ptr %3, align 8
  %9 = load ptr, ptr %3, align 8
  %10 = call ptr @_ZNSt6vectorIN2cv5gimpl9GExecutor6OpDescESaIS3_EE5beginEv(ptr noundef nonnull align 8 dereferenceable(24) %9) #3
  %11 = getelementptr inbounds %"class.__gnu_cxx::__normal_iterator.250", ptr %4, i32 0, i32 0
  store ptr %10, ptr %11, align 8
  %12 = load ptr, ptr %3, align 8
  %13 = call ptr @_ZNSt6vectorIN2cv5gimpl9GExecutor6OpDescESaIS3_EE3endEv(ptr noundef nonnull align 8 dereferenceable(24) %12) #3
  %14 = getelementptr inbounds %"class.__gnu_cxx::__normal_iterator.250", ptr %5, i32 0, i32 0
  store ptr %13, ptr %14, align 8
  br label %15

15:                                               ; preds = %25, %1
  %16 = call noundef zeroext i1 @_ZN9__gnu_cxxneIPN2cv5gimpl9GExecutor6OpDescESt6vectorIS4_SaIS4_EEEEbRKNS_17__normal_iteratorIT_T0_EESE_(ptr noundef nonnull align 8 dereferenceable(8) %4, ptr noundef nonnull align 8 dereferenceable(8) %5) #3
  br i1 %16, label %17, label %27

17:                                               ; preds = %15
  %18 = call noundef nonnull align 8 dereferenceable(64) ptr @_ZNK9__gnu_cxx17__normal_iteratorIPN2cv5gimpl9GExecutor6OpDescESt6vectorIS4_SaIS4_EEEdeEv(ptr noundef nonnull align 8 dereferenceable(8) %4) #3
  store ptr %18, ptr %6, align 8
  %19 = load ptr, ptr %6, align 8
  %20 = getelementptr inbounds %"struct.cv::gimpl::GExecutor::OpDesc", ptr %19, i32 0, i32 2
  %21 = call noundef ptr @_ZNKSt19__shared_ptr_accessIN2cv5gimpl17GIslandExecutableELN9__gnu_cxx12_Lock_policyE2ELb0ELb0EEptEv(ptr noundef nonnull align 1 dereferenceable(1) %20) #3
  %22 = load ptr, ptr %21, align 8
  %23 = getelementptr inbounds ptr, ptr %22, i64 6
  %24 = load ptr, ptr %23, align 8
  call void %24(ptr noundef nonnull align 8 dereferenceable(8) %21)
  br label %25

25:                                               ; preds = %17
  %26 = call noundef nonnull align 8 dereferenceable(8) ptr @_ZN9__gnu_cxx17__normal_iteratorIPN2cv5gimpl9GExecutor6OpDescESt6vectorIS4_SaIS4_EEEppEv(ptr noundef nonnull align 8 dereferenceable(8) %4) #3
  br label %15

27:                                               ; preds = %15
  ret void
}