; Function Attrs: mustprogress uwtable
define hidden void @_ZN2cv5gimpl9GExecutor19prepareForNewStreamEv(ptr nocapture noundef nonnull readonly align 8 dereferenceable(1248) %0) unnamed_addr #3 align 2 {
  %2 = getelementptr inbounds i8, ptr %0, i64 1200
  %3 = load ptr, ptr %2, align 8
  %4 = getelementptr inbounds i8, ptr %0, i64 1208
  %5 = load ptr, ptr %4, align 8
  %.not7 = icmp eq ptr %3, %5
  br i1 %.not7, label %._crit_edge, label %.lr.ph

.lr.ph:                                           ; preds = %1, %.lr.ph
  %.sroa.04.08 = phi ptr [ %11, %.lr.ph ], [ %3, %1 ]
  %6 = getelementptr inbounds i8, ptr %.sroa.04.08, i64 48
  %7 = load ptr, ptr %6, align 8
  %8 = load ptr, ptr %7, align 8
  %9 = getelementptr inbounds i8, ptr %8, i64 48
  %10 = load ptr, ptr %9, align 8
  tail call void %10(ptr noundef nonnull align 8 dereferenceable(8) %7)
  %11 = getelementptr inbounds i8, ptr %.sroa.04.08, i64 64
  %.not = icmp eq ptr %11, %5
  br i1 %.not, label %._crit_edge, label %.lr.ph

._crit_edge:                                      ; preds = %.lr.ph, %1
  ret void
}